; Function Attrs: mustprogress nofree norecurse nosync nounwind willreturn memory(read, argmem: readwrite, inaccessiblemem: none) uwtable
define hidden noundef zeroext i1 @_ZNK13proof_checker13match_impliesEPK4exprRPS0_S4_(ptr nocapture noundef nonnull readnone align 8 dereferenceable(156) %this, ptr nocapture noundef readonly %e, ptr nocapture noundef nonnull writeonly align 8 dereferenceable(8) %t1, ptr nocapture noundef nonnull writeonly align 8 dereferenceable(8) %t2) local_unnamed_addr #9 align 2 {
entry:
  %m_kind.i.i = getelementptr inbounds i8, ptr %e, i64 4
  %bf.load.i.i = load i32, ptr %m_kind.i.i, align 4
  %bf.clear.i.i = and i32 %bf.load.i.i, 65535
  %cmp.i = icmp eq i32 %bf.clear.i.i, 0
  br i1 %cmp.i, label %land.lhs.true.i, label %_ZNK13proof_checker8match_opEPK4expriRPS0_S4_.exit

land.lhs.true.i:                                  ; preds = %entry
  %m_decl.i.i.i = getelementptr inbounds i8, ptr %e, i64 16
  %0 = load ptr, ptr %m_decl.i.i.i, align 8
  %m_info.i.i.i = getelementptr inbounds i8, ptr %0, i64 24
  %1 = load ptr, ptr %m_info.i.i.i, align 8
  %cmp.i.i.i = icmp eq ptr %1, null
  br i1 %cmp.i.i.i, label %_ZNK13proof_checker8match_opEPK4expriRPS0_S4_.exit, label %_ZNK3app13get_family_idEv.exit.i

_ZNK3app13get_family_idEv.exit.i:                 ; preds = %land.lhs.true.i
  %2 = load i32, ptr %1, align 8
  %cmp5.i = icmp eq i32 %2, 0
  br i1 %cmp5.i, label %_ZNK3app13get_decl_kindEv.exit.i, label %_ZNK13proof_checker8match_opEPK4expriRPS0_S4_.exit

_ZNK3app13get_decl_kindEv.exit.i:                 ; preds = %_ZNK3app13get_family_idEv.exit.i
  %m_kind.i.i.i.i = getelementptr inbounds i8, ptr %1, i64 4
  %3 = load i32, ptr %m_kind.i.i.i.i, align 4
  %cmp9.i = icmp eq i32 %3, 9
  br i1 %cmp9.i, label %land.lhs.true10.i, label %_ZNK13proof_checker8match_opEPK4expriRPS0_S4_.exit

land.lhs.true10.i:                                ; preds = %_ZNK3app13get_decl_kindEv.exit.i
  %m_num_args.i.i = getelementptr inbounds i8, ptr %e, i64 24
  %4 = load i32, ptr %m_num_args.i.i, align 8
  %cmp13.i = icmp eq i32 %4, 2
  br i1 %cmp13.i, label %if.then.i, label %_ZNK13proof_checker8match_opEPK4expriRPS0_S4_.exit

if.then.i:                                        ; preds = %land.lhs.true10.i
  %m_args.i.i = getelementptr inbounds i8, ptr %e, i64 32
  %5 = load ptr, ptr %m_args.i.i, align 8
  store ptr %5, ptr %t1, align 8
  %arrayidx.i.i = getelementptr inbounds i8, ptr %e, i64 40
  %6 = load ptr, ptr %arrayidx.i.i, align 8
  store ptr %6, ptr %t2, align 8
  br label %_ZNK13proof_checker8match_opEPK4expriRPS0_S4_.exit

_ZNK13proof_checker8match_opEPK4expriRPS0_S4_.exit: ; preds = %entry, %land.lhs.true.i, %_ZNK3app13get_family_idEv.exit.i, %_ZNK3app13get_decl_kindEv.exit.i, %land.lhs.true10.i, %if.then.i
  %retval.0.i = phi i1 [ true, %if.then.i ], [ false, %land.lhs.true10.i ], [ false, %_ZNK3app13get_decl_kindEv.exit.i ], [ false, %_ZNK3app13get_family_idEv.exit.i ], [ false, %entry ], [ false, %land.lhs.true.i ]
  ret i1 %retval.0.i
}